target datalayout = "e-m:e-p270:32:32-p271:32:32-p272:64:64-i64:64-i128:128-f80:128-n8:16:32:64-S128"
target triple = "x86_64-pc-linux-gnu"

; Function Attrs: mustprogress nounwind uwtable
define linkonce_odr hidden noundef ptr @_ZNK5clang4Expr16IgnoreParenCastsEv(ptr noundef nonnull align 8 dereferenceable(16) %0) #0 comdat align 2 {
  %2 = alloca ptr, align 8
  store ptr %0, ptr %2, align 8
  %3 = load ptr, ptr %2, align 8
  %4 = call noundef ptr @_ZN5clang4Expr16IgnoreParenCastsEv(ptr noundef nonnull align 8 dereferenceable(16) %3) #12
  ret ptr %4
}

; Function Attrs: mustprogress nounwind uwtable
define internal noundef ptr @_ZN12_GLOBAL__N_113DeclRefFinder9VisitExprEPKN5clang4ExprE(ptr noundef nonnull align 1 dereferenceable(1) %0, ptr noundef %1) #0 align 2 {
  %3 = alloca ptr, align 8
  %4 = alloca ptr, align 8
  %5 = alloca ptr, align 8
  store ptr %0, ptr %3, align 8
  store ptr %1, ptr %4, align 8
  %6 = load ptr, ptr %3, align 8
  %7 = load ptr, ptr %4, align 8
  %8 = call noundef ptr @_ZNK5clang4Expr16IgnoreParenCastsEv(ptr noundef nonnull align 8 dereferenceable(16) %7)
  store ptr %8, ptr %5, align 8
  %9 = load ptr, ptr %4, align 8
  %10 = load ptr, ptr %5, align 8
  %11 = icmp ne ptr %9, %10
  br i1 %11, label %12, label %15

12:                                               ; preds = %2
  %13 = load ptr, ptr %5, align 8
  %14 = call noundef ptr @_ZN5clang15StmtVisitorBaseIN4llvm14make_const_ptrEN12_GLOBAL__N_113DeclRefFinderEPKNS_11DeclRefExprEJEE5VisitEPKNS_4StmtE(ptr noundef nonnull align 1 dereferenceable(1) %6, ptr noundef %13)
  br label %16

15:                                               ; preds = %2
  br label %16

16:                                               ; preds = %15, %12
  %17 = phi ptr [ %14, %12 ], [ null, %15 ]
  ret ptr %17
}

; Function Attrs: mustprogress nounwind uwtable
define internal noundef ptr @_ZN5clang15StmtVisitorBaseIN4llvm14make_const_ptrEN12_GLOBAL__N_113DeclRefFinderEPKNS_11DeclRefExprEJEE32VisitAbstractConditionalOperatorEPKNS_27AbstractConditionalOperatorE(ptr noundef nonnull align 1 dereferenceable(1) %0, ptr noundef %1) #0 align 2 {
  %3 = alloca ptr, align 8
  %4 = alloca ptr, align 8
  store ptr %0, ptr %3, align 8
  store ptr %1, ptr %4, align 8
  %5 = load ptr, ptr %3, align 8
  %6 = load ptr, ptr %4, align 8
  %7 = call noundef ptr @_ZN12_GLOBAL__N_113DeclRefFinder9VisitExprEPKN5clang4ExprE(ptr noundef nonnull align 1 dereferenceable(1) %5, ptr noundef %6)
  ret ptr %7
}